target datalayout = "e-m:e-p270:32:32-p271:32:32-p272:64:64-i64:64-i128:128-f80:128-n8:16:32:64-S128"
target triple = "x86_64-pc-linux-gnu"

%class.cmComputeTargetDepends = type { ptr, i8, i8, %"class.std::vector", %"class.std::map", %struct.cmGraphAdjacencyList, %struct.cmGraphAdjacencyList, %struct.cmGraphAdjacencyList, %"class.std::vector.11", %"class.std::vector.16", %"class.std::vector.16" }
%"class.std::vector" = type { %"struct.std::_Vector_base" }
%"struct.std::_Vector_base" = type { %"struct.std::_Vector_base<const cmGeneratorTarget *, std::allocator<const cmGeneratorTarget *>>::_Vector_impl" }
%"struct.std::_Vector_base<const cmGeneratorTarget *, std::allocator<const cmGeneratorTarget *>>::_Vector_impl" = type { %"struct.std::_Vector_base<const cmGeneratorTarget *, std::allocator<const cmGeneratorTarget *>>::_Vector_impl_data" }
%"struct.std::_Vector_base<const cmGeneratorTarget *, std::allocator<const cmGeneratorTarget *>>::_Vector_impl_data" = type { ptr, ptr, ptr }
%"class.std::map" = type { %"class.std::_Rb_tree" }
%"class.std::_Rb_tree" = type { %"struct.std::_Rb_tree<const cmGeneratorTarget *, std::pair<const cmGeneratorTarget *const, unsigned long>, std::_Select1st<std::pair<const cmGeneratorTarget *const, unsigned long>>, std::less<const cmGeneratorTarget *>>::_Rb_tree_impl" }
%"struct.std::_Rb_tree<const cmGeneratorTarget *, std::pair<const cmGeneratorTarget *const, unsigned long>, std::_Select1st<std::pair<const cmGeneratorTarget *const, unsigned long>>, std::less<const cmGeneratorTarget *>>::_Rb_tree_impl" = type { [8 x i8], %"struct.std::_Rb_tree_header" }
%"struct.std::_Rb_tree_header" = type { %"struct.std::_Rb_tree_node_base", i64 }
%"struct.std::_Rb_tree_node_base" = type { i32, ptr, ptr, ptr }
%struct.cmGraphAdjacencyList = type { %"class.std::vector.6" }
%"class.std::vector.6" = type { %"struct.std::_Vector_base.7" }
%"struct.std::_Vector_base.7" = type { %"struct.std::_Vector_base<cmGraphEdgeList, std::allocator<cmGraphEdgeList>>::_Vector_impl" }
%"struct.std::_Vector_base<cmGraphEdgeList, std::allocator<cmGraphEdgeList>>::_Vector_impl" = type { %"struct.std::_Vector_base<cmGraphEdgeList, std::allocator<cmGraphEdgeList>>::_Vector_impl_data" }
%"struct.std::_Vector_base<cmGraphEdgeList, std::allocator<cmGraphEdgeList>>::_Vector_impl_data" = type { ptr, ptr, ptr }
%"class.std::vector.11" = type { %"struct.std::_Vector_base.12" }
%"struct.std::_Vector_base.12" = type { %"struct.std::_Vector_base<cmComputeTargetDepends::TargetSideEffects, std::allocator<cmComputeTargetDepends::TargetSideEffects>>::_Vector_impl" }
%"struct.std::_Vector_base<cmComputeTargetDepends::TargetSideEffects, std::allocator<cmComputeTargetDepends::TargetSideEffects>>::_Vector_impl" = type { %"struct.std::_Vector_base<cmComputeTargetDepends::TargetSideEffects, std::allocator<cmComputeTargetDepends::TargetSideEffects>>::_Vector_impl_data" }
%"struct.std::_Vector_base<cmComputeTargetDepends::TargetSideEffects, std::allocator<cmComputeTargetDepends::TargetSideEffects>>::_Vector_impl_data" = type { ptr, ptr, ptr }
%"class.std::vector.16" = type { %"struct.std::_Vector_base.17" }
%"struct.std::_Vector_base.17" = type { %"struct.std::_Vector_base<unsigned long, std::allocator<unsigned long>>::_Vector_impl" }
%"struct.std::_Vector_base<unsigned long, std::allocator<unsigned long>>::_Vector_impl" = type { %"struct.std::_Vector_base<unsigned long, std::allocator<unsigned long>>::_Vector_impl_data" }
%"struct.std::_Vector_base<unsigned long, std::allocator<unsigned long>>::_Vector_impl_data" = type { ptr, ptr, ptr }

; Function Attrs: mustprogress nounwind uwtable
define linkonce_odr dso_local noundef i64 @_ZNKSt6vectorIPK17cmGeneratorTargetSaIS2_EE4sizeEv(ptr noundef nonnull align 8 dereferenceable(24) %0) #6 comdat align 2 {
  %2 = alloca ptr, align 8
  store ptr %0, ptr %2, align 8, !tbaa !61
  %3 = load ptr, ptr %2, align 8
  %4 = getelementptr inbounds nuw %"struct.std::_Vector_base", ptr %3, i32 0, i32 0
  %5 = getelementptr inbounds nuw %"struct.std::_Vector_base<const cmGeneratorTarget *, std::allocator<const cmGeneratorTarget *>>::_Vector_impl_data", ptr %4, i32 0, i32 1
  %6 = load ptr, ptr %5, align 8, !tbaa !205
  %7 = getelementptr inbounds nuw %"struct.std::_Vector_base", ptr %3, i32 0, i32 0
  %8 = getelementptr inbounds nuw %"struct.std::_Vector_base<const cmGeneratorTarget *, std::allocator<const cmGeneratorTarget *>>::_Vector_impl_data", ptr %7, i32 0, i32 0
  %9 = load ptr, ptr %8, align 8, !tbaa !204
  %10 = ptrtoint ptr %6 to i64
  %11 = ptrtoint ptr %9 to i64
  %12 = sub i64 %10, %11
  %13 = sdiv exact i64 %12, 8
  ret i64 %13
}

; Function Attrs: mustprogress uwtable
define dso_local void @_ZN22cmComputeTargetDepends14CollectDependsEv(ptr noundef nonnull align 8 dereferenceable(232) %0) #5 align 2 {
  %2 = alloca ptr, align 8
  %3 = alloca i64, align 8
  store ptr %0, ptr %2, align 8, !tbaa !20
  %4 = load ptr, ptr %2, align 8
  %5 = getelementptr inbounds nuw %class.cmComputeTargetDepends, ptr %4, i32 0, i32 5
  %6 = getelementptr inbounds nuw %class.cmComputeTargetDepends, ptr %4, i32 0, i32 3
  %7 = call noundef i64 @_ZNKSt6vectorIPK17cmGeneratorTargetSaIS2_EE4sizeEv(ptr noundef nonnull align 8 dereferenceable(24) %6) #3
  call void @_ZNSt6vectorI15cmGraphEdgeListSaIS0_EE6resizeEm(ptr noundef nonnull align 8 dereferenceable(24) %5, i64 noundef %7)
  call void @llvm.lifetime.start.p0(i64 8, ptr %3) #3
  store i64 0, ptr %3, align 8, !tbaa !17
  br label %8

8:                                                ; preds = %16, %1
  %9 = load i64, ptr %3, align 8, !tbaa !17
  %10 = getelementptr inbounds nuw %class.cmComputeTargetDepends, ptr %4, i32 0, i32 3
  %11 = call noundef i64 @_ZNKSt6vectorIPK17cmGeneratorTargetSaIS2_EE4sizeEv(ptr noundef nonnull align 8 dereferenceable(24) %10) #3
  %12 = icmp ult i64 %9, %11
  br i1 %12, label %14, label %13

13:                                               ; preds = %8
  call void @llvm.lifetime.end.p0(i64 8, ptr %3) #3
  br label %19

14:                                               ; preds = %8
  %15 = load i64, ptr %3, align 8, !tbaa !17
  call void @_ZN22cmComputeTargetDepends20CollectTargetDependsEm(ptr noundef nonnull align 8 dereferenceable(232) %4, i64 noundef %15)
  br label %16

16:                                               ; preds = %14
  %17 = load i64, ptr %3, align 8, !tbaa !17
  %18 = add i64 %17, 1
  store i64 %18, ptr %3, align 8, !tbaa !17
  br label %8, !llvm.loop !217

19:                                               ; preds = %13
  ret void
}