; Function Attrs: mustprogress uwtable
define dso_local void @_ZN22cmComputeTargetDepends14CollectDependsEv(ptr noundef nonnull align 8 dereferenceable(232) %0) local_unnamed_addr #5 align 2 {
  %2 = getelementptr inbounds nuw i8, ptr %0, i64 88
  %3 = getelementptr inbounds nuw i8, ptr %0, i64 16
  %4 = getelementptr inbounds nuw i8, ptr %0, i64 24
  %5 = load ptr, ptr %4, align 8, !tbaa !209
  %6 = load ptr, ptr %3, align 8, !tbaa !181
  %7 = ptrtoint ptr %5 to i64
  %8 = ptrtoint ptr %6 to i64
  %9 = sub i64 %7, %8
  %10 = ashr exact i64 %9, 3
  tail call void @_ZNSt6vectorI15cmGraphEdgeListSaIS0_EE6resizeEm(ptr noundef nonnull align 8 dereferenceable(24) %2, i64 noundef %10)
  %11 = load ptr, ptr %4, align 8, !tbaa !209
  %12 = load ptr, ptr %3, align 8, !tbaa !181
  %.not = icmp eq ptr %11, %12
  br i1 %.not, label %._crit_edge, label %.lr.ph

._crit_edge:                                      ; preds = %.lr.ph, %1
  ret void

.lr.ph:                                           ; preds = %1, %.lr.ph
  %.03 = phi i64 [ %13, %.lr.ph ], [ 0, %1 ]
  tail call void @_ZN22cmComputeTargetDepends20CollectTargetDependsEm(ptr noundef nonnull align 8 dereferenceable(232) %0, i64 noundef %.03)
  %13 = add nuw i64 %.03, 1
  %14 = load ptr, ptr %4, align 8, !tbaa !209
  %15 = load ptr, ptr %3, align 8, !tbaa !181
  %16 = ptrtoint ptr %14 to i64
  %17 = ptrtoint ptr %15 to i64
  %18 = sub i64 %16, %17
  %19 = ashr exact i64 %18, 3
  %20 = icmp ult i64 %13, %19
  br i1 %20, label %.lr.ph, label %._crit_edge, !llvm.loop !210
}